target datalayout = "e-m:e-p270:32:32-p271:32:32-p272:64:64-i64:64-i128:128-f80:128-n8:16:32:64-S128"
target triple = "x86_64-pc-linux-gnu"

%struct.slurm_conf_t = type { i64, ptr, i16, ptr, ptr, ptr, ptr, ptr, i16, ptr, ptr, ptr, ptr, ptr, ptr, ptr, i16, ptr, ptr, ptr, ptr, i16, ptr, ptr, ptr, i64, ptr, ptr, ptr, ptr, i16, ptr, ptr, i16, i32, ptr, i32, ptr, i32, i32, ptr, ptr, i64, i64, ptr, i16, i16, ptr, i32, i32, ptr, i32, ptr, i32, i16, i16, i16, ptr, i16, i16, ptr, ptr, i32, i16, i16, ptr, i32, i16, ptr, ptr, ptr, ptr, i16, ptr, ptr, ptr, ptr, i32, ptr, ptr, ptr, ptr, i16, i16, ptr, i32, i32, i32, i16, i16, ptr, ptr, i16, ptr, ptr, i32, i32, i32, i32, i32, i64, i32, i32, i16, ptr, ptr, i32, ptr, ptr, ptr, i16, i32, ptr, ptr, i16, ptr, ptr, i32, i16, ptr, ptr, ptr, ptr, i32, i32, i16, i16, i32, ptr, i16, ptr, i32, i32, i32, i32, i32, i32, ptr, i16, ptr, ptr, i32, i16, ptr, i32, i16, i16, ptr, ptr, ptr, i16, ptr, ptr, ptr, ptr, i16, i16, ptr, i16, ptr, i16, ptr, i16, ptr, i16, ptr, ptr, ptr, ptr, i16, ptr, ptr, ptr, i32, ptr, i32, ptr, ptr, i16, ptr, ptr, i32, i16, ptr, ptr, i16, i16, ptr, i16, ptr, ptr, ptr, i32, ptr, i16, i16, ptr, ptr, ptr, ptr, ptr, ptr, ptr, ptr, i16, i32, i16, ptr, ptr, ptr, ptr, i32, ptr, ptr, ptr, i16, ptr, ptr, ptr, i16, ptr, i16, ptr, i16, i16, ptr }

@stderr = external global ptr, align 8
@.str.52 = private unnamed_addr constant [18 x i8] c"Invalid job_id %s\00", align 1
@slurm_conf = external global %struct.slurm_conf_t, align 8
@.str.210 = private unnamed_addr constant [26 x i8] c"Waiting for nodes to boot\00", align 1
@.str.211 = private unnamed_addr constant [27 x i8] c"Nodes are ready for job %u\00", align 1
@.str.212 = private unnamed_addr constant [25 x i8] c"Job %u no longer running\00", align 1
@.str.213 = private unnamed_addr constant [23 x i8] c"Problem running job %u\00", align 1

; Function Attrs: nounwind uwtable
define internal i32 @_wait_nodes_ready(i32 noundef %0) #0 {
  %2 = alloca i32, align 4
  %3 = alloca i32, align 4
  %4 = alloca i32, align 4
  %5 = alloca i32, align 4
  %6 = alloca i32, align 4
  %7 = alloca i32, align 4
  %8 = alloca i32, align 4
  %9 = alloca i32, align 4
  store i32 %0, ptr %3, align 4
  call void @llvm.lifetime.start.p0(i64 4, ptr %4) #9
  store i32 -1, ptr %4, align 4
  call void @llvm.lifetime.start.p0(i64 4, ptr %5) #9
  call void @llvm.lifetime.start.p0(i64 4, ptr %6) #9
  store i32 0, ptr %6, align 4
  call void @llvm.lifetime.start.p0(i64 4, ptr %7) #9
  store i32 0, ptr %7, align 4
  call void @llvm.lifetime.start.p0(i64 4, ptr %8) #9
  %10 = load i16, ptr getelementptr inbounds nuw (%struct.slurm_conf_t, ptr @slurm_conf, i32 0, i32 206), align 8
  %11 = icmp ne i16 %10, 0
  br i1 %11, label %12, label %15

12:                                               ; preds = %1
  %13 = load i16, ptr getelementptr inbounds nuw (%struct.slurm_conf_t, ptr @slurm_conf, i32 0, i32 156), align 2
  %14 = icmp ne i16 %13, 0
  br i1 %14, label %16, label %15

15:                                               ; preds = %12, %1
  store i32 0, ptr %2, align 4
  store i32 1, ptr %9, align 4
  br label %130

16:                                               ; preds = %12
  %17 = load i16, ptr getelementptr inbounds nuw (%struct.slurm_conf_t, ptr @slurm_conf, i32 0, i32 206), align 8
  %18 = zext i16 %17 to i32
  %19 = load i16, ptr getelementptr inbounds nuw (%struct.slurm_conf_t, ptr @slurm_conf, i32 0, i32 156), align 2
  %20 = zext i16 %19 to i32
  %21 = add nsw i32 %18, %20
  store i32 %21, ptr %8, align 4
  %22 = load i32, ptr %8, align 4
  %23 = mul nsw i32 %22, 5
  store i32 %23, ptr %8, align 4
  store i32 0, ptr %5, align 4
  br label %24

24:                                               ; preds = %80, %16
  %25 = load i32, ptr %7, align 4
  %26 = load i32, ptr %8, align 4
  %27 = icmp slt i32 %25, %26
  br i1 %27, label %28, label %83

28:                                               ; preds = %24
  %29 = load i32, ptr %5, align 4
  %30 = icmp ne i32 %29, 0
  br i1 %30, label %31, label %49

31:                                               ; preds = %28
  %32 = load i32, ptr %5, align 4
  %33 = icmp eq i32 %32, 1
  br i1 %33, label %34, label %45

34:                                               ; preds = %31
  br label %35

35:                                               ; preds = %34
  br label %36

36:                                               ; preds = %35
  %37 = call i32 @get_log_level()
  %38 = icmp sge i32 %37, 3
  br i1 %38, label %39, label %40

39:                                               ; preds = %36
  call void (i32, ptr, ...) @log_var(i32 noundef 3, ptr noundef @.str.210)
  br label %40

40:                                               ; preds = %39, %36
  br label %41

41:                                               ; preds = %40
  br label %42

42:                                               ; preds = %41
  br label %43

43:                                               ; preds = %42
  br label %44

44:                                               ; preds = %43
  br label %45

45:                                               ; preds = %44, %31
  %46 = call i32 @sleep(i32 noundef 3)
  %47 = load i32, ptr %7, align 4
  %48 = add nsw i32 %47, 3
  store i32 %48, ptr %7, align 4
  br label %49

49:                                               ; preds = %45, %28
  %50 = load i32, ptr %3, align 4
  %51 = call i32 @slurm_job_node_ready(i32 noundef %50)
  store i32 %51, ptr %6, align 4
  %52 = load i32, ptr %6, align 4
  %53 = icmp eq i32 %52, -2
  br i1 %53, label %54, label %55

54:                                               ; preds = %49
  br label %83

55:                                               ; preds = %49
  %56 = load i32, ptr %6, align 4
  %57 = icmp eq i32 %56, -1
  br i1 %57, label %61, label %58

58:                                               ; preds = %55
  %59 = load i32, ptr %6, align 4
  %60 = icmp eq i32 %59, 11
  br i1 %60, label %61, label %62

61:                                               ; preds = %58, %55
  br label %80

62:                                               ; preds = %58
  %63 = load i32, ptr %6, align 4
  %64 = sext i32 %63 to i64
  %65 = and i64 %64, 2
  %66 = icmp eq i64 %65, 0
  br i1 %66, label %67, label %68

67:                                               ; preds = %62
  br label %83

68:                                               ; preds = %62
  %69 = load i32, ptr %6, align 4
  %70 = sext i32 %69 to i64
  %71 = and i64 %70, 1
  %72 = icmp ne i64 %71, 0
  br i1 %72, label %73, label %79

73:                                               ; preds = %68
  %74 = load i32, ptr %6, align 4
  %75 = sext i32 %74 to i64
  %76 = and i64 %75, 4
  %77 = icmp ne i64 %76, 0
  br i1 %77, label %78, label %79

78:                                               ; preds = %73
  store i32 0, ptr %4, align 4
  br label %83

79:                                               ; preds = %73, %68
  br label %80

80:                                               ; preds = %79, %61
  %81 = load i32, ptr %5, align 4
  %82 = add nsw i32 %81, 1
  store i32 %82, ptr %5, align 4
  br label %24, !llvm.loop !31

83:                                               ; preds = %78, %67, %54, %24
  %84 = load i32, ptr %4, align 4
  %85 = icmp eq i32 %84, 0
  br i1 %85, label %86, label %98

86:                                               ; preds = %83
  br label %87

87:                                               ; preds = %86
  br label %88

88:                                               ; preds = %87
  %89 = call i32 @get_log_level()
  %90 = icmp sge i32 %89, 3
  br i1 %90, label %91, label %93

91:                                               ; preds = %88
  %92 = load i32, ptr %3, align 4
  call void (i32, ptr, ...) @log_var(i32 noundef 3, ptr noundef @.str.211, i32 noundef %92)
  br label %93

93:                                               ; preds = %91, %88
  br label %94

94:                                               ; preds = %93
  br label %95

95:                                               ; preds = %94
  br label %96

96:                                               ; preds = %95
  br label %97

97:                                               ; preds = %96
  br label %128

98:                                               ; preds = %83
  %99 = load i32, ptr %6, align 4
  %100 = sext i32 %99 to i64
  %101 = and i64 %100, 2
  %102 = icmp eq i64 %101, 0
  br i1 %102, label %103, label %115

103:                                              ; preds = %98
  br label %104

104:                                              ; preds = %103
  br label %105

105:                                              ; preds = %104
  %106 = call i32 @get_log_level()
  %107 = icmp sge i32 %106, 3
  br i1 %107, label %108, label %110

108:                                              ; preds = %105
  %109 = load i32, ptr %3, align 4
  call void (i32, ptr, ...) @log_var(i32 noundef 3, ptr noundef @.str.212, i32 noundef %109)
  br label %110

110:                                              ; preds = %108, %105
  br label %111

111:                                              ; preds = %110
  br label %112

112:                                              ; preds = %111
  br label %113

113:                                              ; preds = %112
  br label %114

114:                                              ; preds = %113
  br label %127

115:                                              ; preds = %98
  br label %116

116:                                              ; preds = %115
  br label %117

117:                                              ; preds = %116
  %118 = call i32 @get_log_level()
  %119 = icmp sge i32 %118, 3
  br i1 %119, label %120, label %122

120:                                              ; preds = %117
  %121 = load i32, ptr %3, align 4
  call void (i32, ptr, ...) @log_var(i32 noundef 3, ptr noundef @.str.213, i32 noundef %121)
  br label %122

122:                                              ; preds = %120, %117
  br label %123

123:                                              ; preds = %122
  br label %124

124:                                              ; preds = %123
  br label %125

125:                                              ; preds = %124
  br label %126

126:                                              ; preds = %125
  br label %127

127:                                              ; preds = %126, %114
  br label %128

128:                                              ; preds = %127, %97
  %129 = load i32, ptr %4, align 4
  store i32 %129, ptr %2, align 4
  store i32 1, ptr %9, align 4
  br label %130

130:                                              ; preds = %128, %15
  call void @llvm.lifetime.end.p0(i64 4, ptr %8) #9
  call void @llvm.lifetime.end.p0(i64 4, ptr %7) #9
  call void @llvm.lifetime.end.p0(i64 4, ptr %6) #9
  call void @llvm.lifetime.end.p0(i64 4, ptr %5) #9
  call void @llvm.lifetime.end.p0(i64 4, ptr %4) #9
  %131 = load i32, ptr %2, align 4
  ret i32 %131
}

; Function Attrs: inlinehint nounwind willreturn memory(read) uwtable
define available_externally i32 @atoi(ptr noundef nonnull %0) #7 {
  %2 = alloca ptr, align 8
  store ptr %0, ptr %2, align 8
  %3 = load ptr, ptr %2, align 8
  %4 = call i64 @strtol(ptr noundef %3, ptr noundef null, i32 noundef 10) #9
  %5 = trunc i64 %4 to i32
  ret i32 %5
}

; Function Attrs: nounwind uwtable
define dso_local i32 @scontrol_job_ready(ptr noundef %0) #0 {
  %2 = alloca i32, align 4
  %3 = alloca ptr, align 8
  %4 = alloca i32, align 4
  %5 = alloca i32, align 4
  store ptr %0, ptr %3, align 8
  call void @llvm.lifetime.start.p0(i64 4, ptr %4) #9
  %6 = load ptr, ptr %3, align 8
  %7 = call i32 @atoi(ptr noundef %6) #11
  store i32 %7, ptr %4, align 4
  %8 = load i32, ptr %4, align 4
  %9 = icmp ule i32 %8, 0
  br i1 %9, label %10, label %14

10:                                               ; preds = %1
  %11 = load ptr, ptr @stderr, align 8
  %12 = load ptr, ptr %3, align 8
  %13 = call i32 (ptr, ptr, ...) @fprintf(ptr noundef %11, ptr noundef @.str.52, ptr noundef %12) #9
  store i32 -1, ptr %2, align 4
  store i32 1, ptr %5, align 4
  br label %17

14:                                               ; preds = %1
  %15 = load i32, ptr %4, align 4
  %16 = call i32 @_wait_nodes_ready(i32 noundef %15)
  store i32 %16, ptr %2, align 4
  store i32 1, ptr %5, align 4
  br label %17

17:                                               ; preds = %14, %10
  call void @llvm.lifetime.end.p0(i64 4, ptr %4) #9
  %18 = load i32, ptr %2, align 4
  ret i32 %18
}