; Function Attrs: nounwind uwtable
define dso_local range(i32 -1, 1) i32 @scontrol_job_ready(ptr noundef %0) local_unnamed_addr #0 {
  %2 = tail call i64 @strtol(ptr noundef nonnull captures(none) %0, ptr noundef null, i32 noundef 10) #16
  %3 = trunc i64 %2 to i32
  %4 = icmp eq i32 %3, 0
  br i1 %4, label %5, label %8

5:                                                ; preds = %1
  %6 = load ptr, ptr @stderr, align 8
  %7 = tail call i32 (ptr, ptr, ...) @fprintf(ptr noundef %6, ptr noundef nonnull @.str.52, ptr noundef nonnull %0) #20
  br label %_wait_nodes_ready.exit

8:                                                ; preds = %1
  %9 = load i16, ptr getelementptr inbounds nuw (i8, ptr @slurm_conf, i64 1384), align 8
  %10 = icmp ne i16 %9, 0
  %11 = load i16, ptr getelementptr inbounds nuw (i8, ptr @slurm_conf, i64 1018), align 2
  %12 = icmp ne i16 %11, 0
  %or.cond.i = select i1 %10, i1 %12, i1 false
  br i1 %or.cond.i, label %13, label %_wait_nodes_ready.exit

13:                                               ; preds = %8
  %14 = zext i16 %9 to i32
  %15 = zext i16 %11 to i32
  %16 = add nuw nsw i32 %15, %14
  %17 = mul nuw nsw i32 %16, 5
  br label %18

18:                                               ; preds = %33, %13
  %.043.i = phi i32 [ 0, %13 ], [ %.1.i, %33 ]
  %.02642.i = phi i32 [ 0, %13 ], [ %34, %33 ]
  switch i32 %.02642.i, label %23 [
    i32 0, label %26
    i32 1, label %19
  ]

19:                                               ; preds = %18
  %20 = tail call i32 @get_log_level() #16
  %21 = icmp sgt i32 %20, 2
  br i1 %21, label %22, label %23

22:                                               ; preds = %19
  tail call void (i32, ptr, ...) @log_var(i32 noundef 3, ptr noundef nonnull @.str.210) #16
  br label %23

23:                                               ; preds = %22, %19, %18
  %24 = tail call i32 @sleep(i32 noundef 3) #16
  %25 = add nsw i32 %.043.i, 3
  br label %26

26:                                               ; preds = %23, %18
  %.1.i = phi i32 [ %25, %23 ], [ %.043.i, %18 ]
  %27 = tail call i32 @slurm_job_node_ready(i32 noundef range(i32 1, 0) %3) #16
  switch i32 %27, label %28 [
    i32 -2, label %.thread40.i
    i32 -1, label %33
    i32 11, label %33
  ]

28:                                               ; preds = %26
  %29 = and i32 %27, 2
  %30 = icmp eq i32 %29, 0
  br i1 %30, label %split.thread.i, label %31

31:                                               ; preds = %28
  %32 = and i32 %27, 5
  %or.cond35.not.i = icmp eq i32 %32, 5
  br i1 %or.cond35.not.i, label %36, label %33

33:                                               ; preds = %31, %26, %26
  %34 = add nuw nsw i32 %.02642.i, 1
  %35 = icmp slt i32 %.1.i, %17
  br i1 %35, label %18, label %split.i, !llvm.loop !33

36:                                               ; preds = %31
  %37 = tail call i32 @get_log_level() #16
  %38 = icmp sgt i32 %37, 2
  br i1 %38, label %.sink.split.i, label %_wait_nodes_ready.exit

split.i:                                          ; preds = %33
  %.pre.i = and i32 %27, 2
  %39 = icmp eq i32 %.pre.i, 0
  br i1 %39, label %split.thread.i, label %.thread40.i

split.thread.i:                                   ; preds = %28, %split.i
  %40 = tail call i32 @get_log_level() #16
  %41 = icmp sgt i32 %40, 2
  br i1 %41, label %.sink.split.i, label %_wait_nodes_ready.exit

.thread40.i:                                      ; preds = %26, %split.i
  %42 = tail call i32 @get_log_level() #16
  %43 = icmp sgt i32 %42, 2
  br i1 %43, label %.sink.split.i, label %_wait_nodes_ready.exit

.sink.split.i:                                    ; preds = %.thread40.i, %split.thread.i, %36
  %.str.211.sink.i = phi ptr [ @.str.211, %36 ], [ @.str.212, %split.thread.i ], [ @.str.213, %.thread40.i ]
  %.028.ph.i = phi i32 [ 0, %36 ], [ -1, %split.thread.i ], [ -1, %.thread40.i ]
  tail call void (i32, ptr, ...) @log_var(i32 noundef 3, ptr noundef nonnull %.str.211.sink.i, i32 noundef range(i32 1, 0) %3) #16
  br label %_wait_nodes_ready.exit

_wait_nodes_ready.exit:                           ; preds = %.sink.split.i, %.thread40.i, %split.thread.i, %36, %8, %5
  %.0 = phi i32 [ -1, %5 ], [ 0, %8 ], [ -1, %split.thread.i ], [ -1, %.thread40.i ], [ 0, %36 ], [ %.028.ph.i, %.sink.split.i ]
  ret i32 %.0
}